; Function Attrs: nounwind uwtable
define dso_local void @aofListFree(ptr noundef %0) #0 {
  %.not.i = icmp eq ptr %0, null
  br i1 %.not.i, label %2, label %3, !prof !5

2:                                                ; preds = %1
  tail call void @_serverAssert(ptr noundef nonnull @.str, ptr noundef nonnull @.str.1, i32 noundef 96) #20
  tail call void @abort() #21
  unreachable

3:                                                ; preds = %1
  %4 = load ptr, ptr %0, align 8, !tbaa !6
  %.not5.i = icmp eq ptr %4, null
  br i1 %.not5.i, label %aofInfoFree.exit, label %5

5:                                                ; preds = %3
  tail call void @sdsfree(ptr noundef nonnull %4) #20
  br label %aofInfoFree.exit

aofInfoFree.exit:                                 ; preds = %3, %5
  tail call void @zfree(ptr noundef nonnull %0) #20
  ret void
}